target datalayout = "e-m:e-p270:32:32-p271:32:32-p272:64:64-i64:64-i128:128-f80:128-n8:16:32:64-S128"
target triple = "x86_64-pc-linux-gnu"

%"class.std::__cxx11::basic_string" = type { %"struct.std::__cxx11::basic_string<char>::_Alloc_hider", i64, %union.anon }
%"struct.std::__cxx11::basic_string<char>::_Alloc_hider" = type { ptr }
%union.anon = type { i64, [8 x i8] }
%struct.stat = type { i64, i64, i64, i32, i32, i32, i32, i64, i64, i64, i64, %struct.timespec, %struct.timespec, %struct.timespec, [3 x i64] }
%struct.timespec = type { i64, i64 }
%"class.cmsys::SystemTools::UnixFileId" = type { i64, i64, i64 }

@_ZN5cmsys11SystemTools10UnixFileIdC1Emml = dso_local unnamed_addr alias void (ptr, i64, i64, i64), ptr @_ZN5cmsys11SystemTools10UnixFileIdC2Emml

; Function Attrs: mustprogress nounwind uwtable
define available_externally noundef ptr @_ZNKSt7__cxx1112basic_stringIcSt11char_traitsIcESaIcEE7_M_dataEv(ptr noundef nonnull align 8 dereferenceable(32) %0) #4 align 2 {
  %2 = alloca ptr, align 8
  store ptr %0, ptr %2, align 8, !tbaa !28
  %3 = load ptr, ptr %2, align 8
  %4 = getelementptr inbounds nuw %"class.std::__cxx11::basic_string", ptr %3, i32 0, i32 0
  %5 = getelementptr inbounds nuw %"struct.std::__cxx11::basic_string<char>::_Alloc_hider", ptr %4, i32 0, i32 0
  %6 = load ptr, ptr %5, align 8, !tbaa !191
  ret ptr %6
}

; Function Attrs: mustprogress nounwind uwtable
define available_externally noundef ptr @_ZNKSt7__cxx1112basic_stringIcSt11char_traitsIcESaIcEE5c_strEv(ptr noundef nonnull align 8 dereferenceable(32) %0) #4 align 2 {
  %2 = alloca ptr, align 8
  store ptr %0, ptr %2, align 8, !tbaa !28
  %3 = load ptr, ptr %2, align 8
  %4 = call noundef ptr @_ZNKSt7__cxx1112basic_stringIcSt11char_traitsIcESaIcEE7_M_dataEv(ptr noundef nonnull align 8 dereferenceable(32) %3)
  ret ptr %4
}

; Function Attrs: mustprogress uwtable
define dso_local noundef zeroext i1 @_ZN5cmsys11SystemTools9GetFileIdERKNSt7__cxx1112basic_stringIcSt11char_traitsIcESaIcEEERNS0_10UnixFileIdE(ptr noundef nonnull align 8 dereferenceable(32) %0, ptr noundef nonnull align 8 dereferenceable(24) %1) #7 align 2 {
  %3 = alloca i1, align 1
  %4 = alloca ptr, align 8
  %5 = alloca ptr, align 8
  %6 = alloca %struct.stat, align 8
  %7 = alloca %"class.cmsys::SystemTools::UnixFileId", align 8
  %8 = alloca i32, align 4
  store ptr %0, ptr %4, align 8, !tbaa !28
  store ptr %1, ptr %5, align 8, !tbaa !62
  call void @llvm.lifetime.start.p0(i64 144, ptr %6) #1
  %9 = load ptr, ptr %4, align 8, !tbaa !28
  %10 = call noundef ptr @_ZNKSt7__cxx1112basic_stringIcSt11char_traitsIcESaIcEE5c_strEv(ptr noundef nonnull align 8 dereferenceable(32) %9) #1
  %11 = call i32 @stat(ptr noundef %10, ptr noundef %6) #1
  %12 = icmp eq i32 %11, 0
  br i1 %12, label %13, label %21

13:                                               ; preds = %2
  call void @llvm.lifetime.start.p0(i64 24, ptr %7) #1
  %14 = getelementptr inbounds nuw %struct.stat, ptr %6, i32 0, i32 0
  %15 = load i64, ptr %14, align 8, !tbaa !68
  %16 = getelementptr inbounds nuw %struct.stat, ptr %6, i32 0, i32 1
  %17 = load i64, ptr %16, align 8, !tbaa !69
  %18 = getelementptr inbounds nuw %struct.stat, ptr %6, i32 0, i32 8
  %19 = load i64, ptr %18, align 8, !tbaa !70
  call void @_ZN5cmsys11SystemTools10UnixFileIdC1Emml(ptr noundef nonnull align 8 dereferenceable(24) %7, i64 noundef %15, i64 noundef %17, i64 noundef %19)
  %20 = load ptr, ptr %5, align 8, !tbaa !62
  call void @llvm.memcpy.p0.p0.i64(ptr align 8 %20, ptr align 8 %7, i64 24, i1 false), !tbaa.struct !71
  call void @llvm.lifetime.end.p0(i64 24, ptr %7) #1
  store i1 true, ptr %3, align 1
  store i32 1, ptr %8, align 4
  br label %22

21:                                               ; preds = %2
  store i1 false, ptr %3, align 1
  store i32 1, ptr %8, align 4
  br label %22

22:                                               ; preds = %21, %13
  call void @llvm.lifetime.end.p0(i64 144, ptr %6) #1
  %23 = load i1, ptr %3, align 1
  ret i1 %23
}