; Function Attrs: mustprogress nofree nounwind uwtable
define dso_local noundef zeroext i1 @_ZN5cmsys11SystemTools9GetFileIdERKNSt7__cxx1112basic_stringIcSt11char_traitsIcESaIcEEERNS0_10UnixFileIdE(ptr noundef nonnull readonly align 8 captures(none) dereferenceable(32) %0, ptr noundef nonnull writeonly align 8 captures(none) dereferenceable(24) %1) local_unnamed_addr #3 align 2 {
  %3 = alloca %struct.stat, align 8
  call void @llvm.lifetime.start.p0(i64 144, ptr nonnull %3) #39
  %4 = load ptr, ptr %0, align 8, !tbaa !21
  %5 = call i32 @stat(ptr noundef %4, ptr noundef nonnull %3) #39
  %6 = icmp eq i32 %5, 0
  br i1 %6, label %7, label %13

7:                                                ; preds = %2
  %8 = load i64, ptr %3, align 8, !tbaa !48
  %9 = getelementptr inbounds nuw i8, ptr %3, i64 8
  %10 = load i64, ptr %9, align 8, !tbaa !51
  %11 = getelementptr inbounds nuw i8, ptr %3, i64 48
  %12 = load i64, ptr %11, align 8, !tbaa !52
  store i64 %8, ptr %1, align 8, !tbaa !25
  %.sroa.4.0..sroa_idx = getelementptr inbounds nuw i8, ptr %1, i64 8
  store i64 %10, ptr %.sroa.4.0..sroa_idx, align 8, !tbaa !25
  %.sroa.5.0..sroa_idx = getelementptr inbounds nuw i8, ptr %1, i64 16
  store i64 %12, ptr %.sroa.5.0..sroa_idx, align 8, !tbaa !25
  br label %13

13:                                               ; preds = %2, %7
  call void @llvm.lifetime.end.p0(i64 144, ptr nonnull %3) #39
  ret i1 %6
}